; ModuleID = '56/2227.c'
source_filename = "56/2227.c"
target datalayout = "e-m:e-p270:32:32-p271:32:32-p272:64:64-i64:64-f80:128-n8:16:32:64-S128"
target triple = "x86_64-pc-linux-gnu"

@.str = private unnamed_addr constant [3 x i8] c"%d\00", align 1

; Function Attrs: noinline nounwind uwtable
define dso_local i32 @main() #0 {
  %1 = alloca i32, align 4
  %2 = alloca i32, align 4
  %3 = alloca i32, align 4
  %4 = alloca i32, align 4
  %5 = alloca i32, align 4
  %6 = alloca [5 x i32], align 16
  %7 = alloca [6 x i32], align 16
  store i32 0, i32* %1, align 4
  %8 = call i32 (i8*, ...) @__isoc99_scanf(i8* getelementptr inbounds ([3 x i8], [3 x i8]* @.str, i64 0, i64 0), i32* %2)
  %9 = load i32, i32* %2, align 4
  %10 = getelementptr inbounds [6 x i32], [6 x i32]* %7, i64 0, i64 0
  store i32 %9, i32* %10, align 16
  store i32 0, i32* %3, align 4
  br label %11

11:                                               ; preds = %46, %0
  %12 = load i32, i32* %3, align 4
  %13 = icmp slt i32 %12, 5
  br i1 %13, label %14, label %49

14:                                               ; preds = %11
  %15 = load i32, i32* %3, align 4
  %16 = sext i32 %15 to i64
  %17 = getelementptr inbounds [6 x i32], [6 x i32]* %7, i64 0, i64 %16
  %18 = load i32, i32* %17, align 4
  %19 = srem i32 %18, 10
  %20 = load i32, i32* %3, align 4
  %21 = sext i32 %20 to i64
  %22 = getelementptr inbounds [5 x i32], [5 x i32]* %6, i64 0, i64 %21
  store i32 %19, i32* %22, align 4
  %23 = load i32, i32* %3, align 4
  %24 = sext i32 %23 to i64
  %25 = getelementptr inbounds [6 x i32], [6 x i32]* %7, i64 0, i64 %24
  %26 = load i32, i32* %25, align 4
  %27 = load i32, i32* %3, align 4
  %28 = sext i32 %27 to i64
  %29 = getelementptr inbounds [5 x i32], [5 x i32]* %6, i64 0, i64 %28
  %30 = load i32, i32* %29, align 4
  %31 = sub nsw i32 %26, %30
  %32 = sdiv i32 %31, 10
  %33 = load i32, i32* %3, align 4
  %34 = add nsw i32 %33, 1
  %35 = sext i32 %34 to i64
  %36 = getelementptr inbounds [6 x i32], [6 x i32]* %7, i64 0, i64 %35
  store i32 %32, i32* %36, align 4
  %37 = load i32, i32* %3, align 4
  %38 = add nsw i32 %37, 1
  %39 = sext i32 %38 to i64
  %40 = getelementptr inbounds [6 x i32], [6 x i32]* %7, i64 0, i64 %39
  %41 = load i32, i32* %40, align 4
  %42 = icmp eq i32 %41, 0
  br i1 %42, label %43, label %45

43:                                               ; preds = %14
  %44 = load i32, i32* %3, align 4
  store i32 %44, i32* %5, align 4
  br label %49

45:                                               ; preds = %14
  br label %46

46:                                               ; preds = %45
  %47 = load i32, i32* %3, align 4
  %48 = add nsw i32 %47, 1
  store i32 %48, i32* %3, align 4
  br label %11

49:                                               ; preds = %43, %11
  store i32 0, i32* %4, align 4
  br label %50

50:                                               ; preds = %60, %49
  %51 = load i32, i32* %4, align 4
  %52 = load i32, i32* %5, align 4
  %53 = icmp sle i32 %51, %52
  br i1 %53, label %54, label %63

54:                                               ; preds = %50
  %55 = load i32, i32* %4, align 4
  %56 = sext i32 %55 to i64
  %57 = getelementptr inbounds [5 x i32], [5 x i32]* %6, i64 0, i64 %56
  %58 = load i32, i32* %57, align 4
  %59 = call i32 (i8*, ...) @printf(i8* getelementptr inbounds ([3 x i8], [3 x i8]* @.str, i64 0, i64 0), i32 %58)
  br label %60

60:                                               ; preds = %54
  %61 = load i32, i32* %4, align 4
  %62 = add nsw i32 %61, 1
  store i32 %62, i32* %4, align 4
  br label %50

63:                                               ; preds = %50
  ret i32 0
}

declare dso_local i32 @__isoc99_scanf(i8*, ...) #1

declare dso_local i32 @printf(i8*, ...) #1


!llvm.module.flags = !{!0}
!llvm.ident = !{!1}

!0 = !{i32 1, !"wchar_size", i32 4}
!1 = !{!"clang version 10.0.0-4ubuntu1 "}
